target datalayout = "e-m:e-p270:32:32-p271:32:32-p272:64:64-i64:64-i128:128-f80:128-n8:16:32:64-S128"
target triple = "x86_64-pc-linux-gnu"

%"class.pbrt::GUI" = type { float, i8, %"class.std::set", float, %"class.pbrt::Transform", %"class.pbrt::Vector2", i8, i32, i8, float, float, double, double, ptr, ptr }
%"class.std::set" = type { %"class.std::_Rb_tree" }
%"class.std::_Rb_tree" = type { %"struct.std::_Rb_tree<char, char, std::_Identity<char>, std::less<char>>::_Rb_tree_impl" }
%"struct.std::_Rb_tree<char, char, std::_Identity<char>, std::less<char>>::_Rb_tree_impl" = type { [8 x i8], %"struct.std::_Rb_tree_header" }
%"struct.std::_Rb_tree_header" = type { %"struct.std::_Rb_tree_node_base", i64 }
%"struct.std::_Rb_tree_node_base" = type { i32, ptr, ptr, ptr }
%"class.pbrt::Transform" = type { %"class.pbrt::SquareMatrix.0", %"class.pbrt::SquareMatrix.0" }
%"class.pbrt::SquareMatrix.0" = type { [4 x [4 x float]] }
%"class.pbrt::Vector2" = type { %"class.pbrt::Tuple2" }
%"class.pbrt::Tuple2" = type { i32, i32 }

; Function Attrs: mustprogress uwtable
define dso_local void @_ZN4pbrt3GUI19mouseButtonCallbackEP10GLFWwindowiii(ptr noundef nonnull align 8 dereferenceable(248) %0, ptr noundef %1, i32 noundef %2, i32 noundef %3, i32 noundef %4) #1 align 2 {
  %6 = alloca ptr, align 8
  %7 = alloca ptr, align 8
  %8 = alloca i32, align 4
  %9 = alloca i32, align 4
  %10 = alloca i32, align 4
  store ptr %0, ptr %6, align 8, !tbaa !15
  store ptr %1, ptr %7, align 8, !tbaa !17
  store i32 %2, ptr %8, align 4, !tbaa !13
  store i32 %3, ptr %9, align 4, !tbaa !13
  store i32 %4, ptr %10, align 4, !tbaa !13
  %11 = load ptr, ptr %6, align 8
  %12 = load i32, ptr %8, align 4, !tbaa !13
  %13 = icmp eq i32 %12, 0
  br i1 %13, label %14, label %22

14:                                               ; preds = %5
  %15 = load i32, ptr %9, align 4, !tbaa !13
  %16 = icmp eq i32 %15, 1
  br i1 %16, label %17, label %22

17:                                               ; preds = %14
  %18 = getelementptr inbounds nuw %"class.pbrt::GUI", ptr %11, i32 0, i32 8
  store i8 1, ptr %18, align 4, !tbaa !50
  %19 = load ptr, ptr %7, align 8, !tbaa !17
  %20 = getelementptr inbounds nuw %"class.pbrt::GUI", ptr %11, i32 0, i32 11
  %21 = getelementptr inbounds nuw %"class.pbrt::GUI", ptr %11, i32 0, i32 12
  call void @glfwGetCursorPos(ptr noundef %19, ptr noundef %20, ptr noundef %21)
  br label %22

22:                                               ; preds = %17, %14, %5
  %23 = load i32, ptr %8, align 4, !tbaa !13
  %24 = icmp eq i32 %23, 0
  br i1 %24, label %25, label %30

25:                                               ; preds = %22
  %26 = load i32, ptr %9, align 4, !tbaa !13
  %27 = icmp eq i32 %26, 0
  br i1 %27, label %28, label %30

28:                                               ; preds = %25
  %29 = getelementptr inbounds nuw %"class.pbrt::GUI", ptr %11, i32 0, i32 8
  store i8 0, ptr %29, align 4, !tbaa !50
  br label %30

30:                                               ; preds = %28, %25, %22
  ret void
}

; Function Attrs: mustprogress uwtable
define internal void @_ZN4pbrtL23glfwMouseButtonCallbackEP10GLFWwindowiii(ptr noundef %0, i32 noundef %1, i32 noundef %2, i32 noundef %3) #1 {
  %5 = alloca ptr, align 8
  %6 = alloca i32, align 4
  %7 = alloca i32, align 4
  %8 = alloca i32, align 4
  %9 = alloca ptr, align 8
  store ptr %0, ptr %5, align 8, !tbaa !17
  store i32 %1, ptr %6, align 4, !tbaa !13
  store i32 %2, ptr %7, align 4, !tbaa !13
  store i32 %3, ptr %8, align 4, !tbaa !13
  call void @llvm.lifetime.start.p0(i64 8, ptr %9) #22
  %10 = load ptr, ptr %5, align 8, !tbaa !17
  %11 = call ptr @glfwGetWindowUserPointer(ptr noundef %10)
  store ptr %11, ptr %9, align 8, !tbaa !15
  %12 = load ptr, ptr %9, align 8, !tbaa !15
  %13 = load ptr, ptr %5, align 8, !tbaa !17
  %14 = load i32, ptr %6, align 4, !tbaa !13
  %15 = load i32, ptr %7, align 4, !tbaa !13
  %16 = load i32, ptr %8, align 4, !tbaa !13
  call void @_ZN4pbrt3GUI19mouseButtonCallbackEP10GLFWwindowiii(ptr noundef nonnull align 8 dereferenceable(248) %12, ptr noundef %13, i32 noundef %14, i32 noundef %15, i32 noundef %16)
  call void @llvm.lifetime.end.p0(i64 8, ptr %9) #22
  ret void
}