; Function Attrs: mustprogress uwtable
define internal void @_ZN4pbrtL23glfwMouseButtonCallbackEP10GLFWwindowiii(ptr noundef %0, i32 noundef %1, i32 noundef %2, i32 %3) #1 {
  %5 = tail call ptr @glfwGetWindowUserPointer(ptr noundef %0)
  %6 = icmp eq i32 %1, 0
  %7 = icmp eq i32 %2, 1
  %or.cond.i = and i1 %6, %7
  br i1 %or.cond.i, label %8, label %12

8:                                                ; preds = %4
  %9 = getelementptr inbounds nuw i8, ptr %5, i64 204
  store i8 1, ptr %9, align 4, !tbaa !47
  %10 = getelementptr inbounds nuw i8, ptr %5, i64 216
  %11 = getelementptr inbounds nuw i8, ptr %5, i64 224
  tail call void @glfwGetCursorPos(ptr noundef %0, ptr noundef nonnull %10, ptr noundef nonnull %11)
  br label %12

12:                                               ; preds = %8, %4
  %13 = or i32 %2, %1
  %or.cond3.i = icmp eq i32 %13, 0
  br i1 %or.cond3.i, label %14, label %_ZN4pbrt3GUI19mouseButtonCallbackEP10GLFWwindowiii.exit

14:                                               ; preds = %12
  %15 = getelementptr inbounds nuw i8, ptr %5, i64 204
  store i8 0, ptr %15, align 4, !tbaa !47
  br label %_ZN4pbrt3GUI19mouseButtonCallbackEP10GLFWwindowiii.exit

_ZN4pbrt3GUI19mouseButtonCallbackEP10GLFWwindowiii.exit: ; preds = %12, %14
  ret void
}